target datalayout = "e-m:e-p270:32:32-p271:32:32-p272:64:64-i64:64-i128:128-f80:128-n8:16:32:64-S128"
target triple = "x86_64-pc-linux-gnu"

%struct._cmstransform_struct = type { i32, i32, ptr, ptr, ptr, ptr, ptr, %struct._cmsCACHE, ptr, ptr, ptr, ptr, i32, i32, %struct.cmsCIEXYZ, %struct.cmsCIEXYZ, ptr, i32, double, i32, ptr, ptr, ptr, ptr, ptr, i32, i32 }
%struct._cmsCACHE = type { [16 x i16], [16 x i16] }
%struct.cmsCIEXYZ = type { double, double, double }

; Function Attrs: nounwind uwtable
define internal ptr @UnrollXYZDoubleTo16(ptr noundef %0, ptr noundef %1, ptr noundef %2, i32 noundef %3) #0 {
  %5 = alloca ptr, align 8
  %6 = alloca ptr, align 8
  %7 = alloca ptr, align 8
  %8 = alloca ptr, align 8
  %9 = alloca i32, align 4
  %10 = alloca %struct.cmsCIEXYZ, align 8
  %11 = alloca ptr, align 8
  %12 = alloca ptr, align 8
  %13 = alloca ptr, align 8
  store ptr %0, ptr %6, align 8
  store ptr %1, ptr %7, align 8
  store ptr %2, ptr %8, align 8
  store i32 %3, ptr %9, align 4
  %14 = load ptr, ptr %6, align 8
  %15 = getelementptr inbounds %struct._cmstransform_struct, ptr %14, i32 0, i32 0
  %16 = load i32, ptr %15, align 8
  %17 = lshr i32 %16, 12
  %18 = and i32 %17, 1
  %19 = icmp ne i32 %18, 0
  br i1 %19, label %20, label %43

20:                                               ; preds = %4
  %21 = load ptr, ptr %8, align 8
  store ptr %21, ptr %11, align 8
  %22 = load ptr, ptr %8, align 8
  %23 = load i32, ptr %9, align 4
  %24 = zext i32 %23 to i64
  %25 = getelementptr inbounds i8, ptr %22, i64 %24
  store ptr %25, ptr %12, align 8
  %26 = load ptr, ptr %8, align 8
  %27 = load i32, ptr %9, align 4
  %28 = mul i32 %27, 2
  %29 = zext i32 %28 to i64
  %30 = getelementptr inbounds i8, ptr %26, i64 %29
  store ptr %30, ptr %13, align 8
  %31 = load ptr, ptr %11, align 8
  %32 = load double, ptr %31, align 8
  %33 = getelementptr inbounds %struct.cmsCIEXYZ, ptr %10, i32 0, i32 0
  store double %32, ptr %33, align 8
  %34 = load ptr, ptr %12, align 8
  %35 = load double, ptr %34, align 8
  %36 = getelementptr inbounds %struct.cmsCIEXYZ, ptr %10, i32 0, i32 1
  store double %35, ptr %36, align 8
  %37 = load ptr, ptr %13, align 8
  %38 = load double, ptr %37, align 8
  %39 = getelementptr inbounds %struct.cmsCIEXYZ, ptr %10, i32 0, i32 2
  store double %38, ptr %39, align 8
  %40 = load ptr, ptr %7, align 8
  call void @cmsFloat2XYZEncoded(ptr noundef %40, ptr noundef %10)
  %41 = load ptr, ptr %8, align 8
  %42 = getelementptr inbounds i8, ptr %41, i64 8
  store ptr %42, ptr %5, align 8
  br label %57

43:                                               ; preds = %4
  %44 = load ptr, ptr %7, align 8
  %45 = load ptr, ptr %8, align 8
  call void @cmsFloat2XYZEncoded(ptr noundef %44, ptr noundef %45)
  %46 = load ptr, ptr %6, align 8
  %47 = getelementptr inbounds %struct._cmstransform_struct, ptr %46, i32 0, i32 0
  %48 = load i32, ptr %47, align 8
  %49 = lshr i32 %48, 7
  %50 = and i32 %49, 7
  %51 = zext i32 %50 to i64
  %52 = mul i64 %51, 8
  %53 = add i64 24, %52
  %54 = load ptr, ptr %8, align 8
  %55 = getelementptr inbounds i8, ptr %54, i64 %53
  store ptr %55, ptr %8, align 8
  %56 = load ptr, ptr %8, align 8
  store ptr %56, ptr %5, align 8
  br label %57

57:                                               ; preds = %43, %20
  %58 = load ptr, ptr %5, align 8
  ret ptr %58
}