; Function Attrs: nounwind uwtable
define internal nonnull ptr @UnrollXYZDoubleTo16(ptr nocapture noundef readonly %0, ptr noundef %1, ptr noundef %2, i32 noundef %3) #0 {
  %5 = alloca %struct.cmsCIEXYZ, align 8
  %6 = load i32, ptr %0, align 8
  %7 = and i32 %6, 4096
  %.not = icmp eq i32 %7, 0
  br i1 %.not, label %20, label %8

8:                                                ; preds = %4
  %9 = zext i32 %3 to i64
  %10 = getelementptr inbounds i8, ptr %2, i64 %9
  %11 = shl i32 %3, 1
  %12 = zext i32 %11 to i64
  %13 = getelementptr inbounds i8, ptr %2, i64 %12
  %14 = load double, ptr %2, align 8
  store double %14, ptr %5, align 8
  %15 = load double, ptr %10, align 8
  %16 = getelementptr inbounds i8, ptr %5, i64 8
  store double %15, ptr %16, align 8
  %17 = load double, ptr %13, align 8
  %18 = getelementptr inbounds i8, ptr %5, i64 16
  store double %17, ptr %18, align 8
  call void @cmsFloat2XYZEncoded(ptr noundef %1, ptr noundef nonnull %5) #11
  %19 = getelementptr inbounds i8, ptr %2, i64 8
  br label %27

20:                                               ; preds = %4
  tail call void @cmsFloat2XYZEncoded(ptr noundef %1, ptr noundef %2) #11
  %21 = load i32, ptr %0, align 8
  %22 = lshr i32 %21, 4
  %23 = and i32 %22, 56
  %24 = zext nneg i32 %23 to i64
  %25 = getelementptr inbounds i8, ptr %2, i64 %24
  %26 = getelementptr inbounds i8, ptr %25, i64 24
  br label %27

27:                                               ; preds = %20, %8
  %.0 = phi ptr [ %19, %8 ], [ %26, %20 ]
  ret ptr %.0
}